target datalayout = "e-m:e-p270:32:32-p271:32:32-p272:64:64-i64:64-i128:128-f80:128-n8:16:32:64-S128"
target triple = "x86_64-pc-linux-gnu"

%"class.std::__cxx11::basic_string" = type { %"struct.std::__cxx11::basic_string<char>::_Alloc_hider", i64, %union.anon }
%"struct.std::__cxx11::basic_string<char>::_Alloc_hider" = type { ptr }
%union.anon = type { i64, [8 x i8] }
%class.VDouble0 = type { double }
%class.V3DfgEliminateVarsContext = type { %"class.std::__cxx11::basic_string", %class.VDouble0, %class.VDouble0 }

@.str = private unnamed_addr constant [20 x i8] c"Optimizations, DFG \00", align 1
@.str.3 = private unnamed_addr constant [35 x i8] c" EliminateVars, variables replaced\00", align 1
@.str.4 = private unnamed_addr constant [34 x i8] c" EliminateVars, variables removed\00", align 1

; Function Attrs: mustprogress nounwind uwtable
define linkonce_odr dso_local noundef double @_ZNK8VDouble0cvdEv(ptr noundef nonnull align 8 dereferenceable(8) %0) #4 comdat align 2 {
  %2 = alloca ptr, align 8
  store ptr %0, ptr %2, align 8
  %3 = load ptr, ptr %2, align 8
  %4 = getelementptr inbounds %class.VDouble0, ptr %3, i32 0, i32 0
  %5 = load double, ptr %4, align 8
  ret double %5
}

; Function Attrs: mustprogress uwtable
define linkonce_odr dso_local void @_ZStplIcSt11char_traitsIcESaIcEENSt7__cxx1112basic_stringIT_T0_T1_EEOS8_PKS5_(ptr dead_on_unwind noalias writable sret(%"class.std::__cxx11::basic_string") align 8 %0, ptr noundef nonnull align 8 dereferenceable(32) %1, ptr noundef %2) #5 comdat {
  %4 = alloca ptr, align 8
  %5 = alloca ptr, align 8
  %6 = alloca ptr, align 8
  store ptr %0, ptr %4, align 8
  store ptr %1, ptr %5, align 8
  store ptr %2, ptr %6, align 8
  %7 = load ptr, ptr %5, align 8
  %8 = load ptr, ptr %6, align 8
  %9 = call noundef nonnull align 8 dereferenceable(32) ptr @_ZNSt7__cxx1112basic_stringIcSt11char_traitsIcESaIcEE6appendEPKc(ptr noundef nonnull align 8 dereferenceable(32) %7, ptr noundef %8)
  call void @_ZNSt7__cxx1112basic_stringIcSt11char_traitsIcESaIcEEC1EOS4_(ptr noundef nonnull align 8 dereferenceable(32) %0, ptr noundef nonnull align 8 dereferenceable(32) %9) #3
  ret void
}

; Function Attrs: mustprogress nounwind uwtable
define dso_local void @_ZN25V3DfgEliminateVarsContextD2Ev(ptr noundef nonnull align 8 dereferenceable(48) %0) unnamed_addr #4 align 2 personality ptr @__gxx_personality_v0 {
  %2 = alloca ptr, align 8
  %3 = alloca %"class.std::__cxx11::basic_string", align 8
  %4 = alloca %"class.std::__cxx11::basic_string", align 8
  %5 = alloca %"class.std::__cxx11::basic_string", align 8
  %6 = alloca %"class.std::__cxx11::basic_string", align 8
  store ptr %0, ptr %2, align 8
  %7 = load ptr, ptr %2, align 8
  %8 = getelementptr inbounds %class.V3DfgEliminateVarsContext, ptr %7, i32 0, i32 0
  invoke void @_ZStplIcSt11char_traitsIcESaIcEENSt7__cxx1112basic_stringIT_T0_T1_EEPKS5_RKS8_(ptr dead_on_unwind writable sret(%"class.std::__cxx11::basic_string") align 8 %4, ptr noundef @.str, ptr noundef nonnull align 8 dereferenceable(32) %8)
          to label %9 unwind label %23

9:                                                ; preds = %1
  invoke void @_ZStplIcSt11char_traitsIcESaIcEENSt7__cxx1112basic_stringIT_T0_T1_EEOS8_PKS5_(ptr dead_on_unwind writable sret(%"class.std::__cxx11::basic_string") align 8 %3, ptr noundef nonnull align 8 dereferenceable(32) %4, ptr noundef @.str.3)
          to label %10 unwind label %23

10:                                               ; preds = %9
  %11 = getelementptr inbounds %class.V3DfgEliminateVarsContext, ptr %7, i32 0, i32 1
  %12 = invoke noundef double @_ZNK8VDouble0cvdEv(ptr noundef nonnull align 8 dereferenceable(8) %11)
          to label %13 unwind label %23

13:                                               ; preds = %10
  invoke void @_ZN7V3Stats7addStatERKNSt7__cxx1112basic_stringIcSt11char_traitsIcESaIcEEEdj(ptr noundef nonnull align 8 dereferenceable(32) %3, double noundef %12, i32 noundef 0)
          to label %14 unwind label %23

14:                                               ; preds = %13
  call void @_ZNSt7__cxx1112basic_stringIcSt11char_traitsIcESaIcEED1Ev(ptr noundef nonnull align 8 dereferenceable(32) %3) #3
  call void @_ZNSt7__cxx1112basic_stringIcSt11char_traitsIcESaIcEED1Ev(ptr noundef nonnull align 8 dereferenceable(32) %4) #3
  %15 = getelementptr inbounds %class.V3DfgEliminateVarsContext, ptr %7, i32 0, i32 0
  invoke void @_ZStplIcSt11char_traitsIcESaIcEENSt7__cxx1112basic_stringIT_T0_T1_EEPKS5_RKS8_(ptr dead_on_unwind writable sret(%"class.std::__cxx11::basic_string") align 8 %6, ptr noundef @.str, ptr noundef nonnull align 8 dereferenceable(32) %15)
          to label %16 unwind label %23

16:                                               ; preds = %14
  invoke void @_ZStplIcSt11char_traitsIcESaIcEENSt7__cxx1112basic_stringIT_T0_T1_EEOS8_PKS5_(ptr dead_on_unwind writable sret(%"class.std::__cxx11::basic_string") align 8 %5, ptr noundef nonnull align 8 dereferenceable(32) %6, ptr noundef @.str.4)
          to label %17 unwind label %23

17:                                               ; preds = %16
  %18 = getelementptr inbounds %class.V3DfgEliminateVarsContext, ptr %7, i32 0, i32 2
  %19 = invoke noundef double @_ZNK8VDouble0cvdEv(ptr noundef nonnull align 8 dereferenceable(8) %18)
          to label %20 unwind label %23

20:                                               ; preds = %17
  invoke void @_ZN7V3Stats7addStatERKNSt7__cxx1112basic_stringIcSt11char_traitsIcESaIcEEEdj(ptr noundef nonnull align 8 dereferenceable(32) %5, double noundef %19, i32 noundef 0)
          to label %21 unwind label %23

21:                                               ; preds = %20
  call void @_ZNSt7__cxx1112basic_stringIcSt11char_traitsIcESaIcEED1Ev(ptr noundef nonnull align 8 dereferenceable(32) %5) #3
  call void @_ZNSt7__cxx1112basic_stringIcSt11char_traitsIcESaIcEED1Ev(ptr noundef nonnull align 8 dereferenceable(32) %6) #3
  %22 = getelementptr inbounds %class.V3DfgEliminateVarsContext, ptr %7, i32 0, i32 0
  call void @_ZNSt7__cxx1112basic_stringIcSt11char_traitsIcESaIcEED1Ev(ptr noundef nonnull align 8 dereferenceable(32) %22) #3
  ret void

23:                                               ; preds = %20, %17, %16, %14, %13, %10, %9, %1
  %24 = landingpad { ptr, i32 }
          catch ptr null
  %25 = extractvalue { ptr, i32 } %24, 0
  call void @__clang_call_terminate(ptr %25) #17
  unreachable
}